; Function Attrs: nounwind uwtable
define internal ptr @deque_repeat(ptr noundef %0, i64 noundef %1) #0 {
  %3 = tail call fastcc ptr @deque_copy_impl(ptr noundef %0)
  %4 = icmp eq ptr %3, null
  br i1 %4, label %Py_DECREF.exit, label %5

5:                                                ; preds = %2
  %6 = tail call fastcc ptr @deque_inplace_repeat_lock_held(ptr noundef nonnull %3, i64 noundef %1)
  %7 = load i32, ptr %3, align 8, !tbaa !20
  %.not.i = icmp sgt i32 %7, -1
  br i1 %.not.i, label %8, label %Py_DECREF.exit

8:                                                ; preds = %5
  %9 = add nsw i32 %7, -1
  store i32 %9, ptr %3, align 8, !tbaa !20
  %10 = icmp eq i32 %9, 0
  br i1 %10, label %11, label %Py_DECREF.exit

11:                                               ; preds = %8
  tail call void @_Py_Dealloc(ptr noundef nonnull %3) #9
  br label %Py_DECREF.exit

Py_DECREF.exit:                                   ; preds = %11, %8, %5, %2
  %.0 = phi ptr [ null, %2 ], [ %6, %5 ], [ %6, %8 ], [ %6, %11 ]
  ret ptr %.0
}